; ModuleID = '57/274.c'
source_filename = "57/274.c"
target datalayout = "e-m:e-p270:32:32-p271:32:32-p272:64:64-i64:64-f80:128-n8:16:32:64-S128"
target triple = "x86_64-pc-linux-gnu"

@.str = private unnamed_addr constant [3 x i8] c"%d\00", align 1
@.str.1 = private unnamed_addr constant [3 x i8] c"%s\00", align 1
@.str.2 = private unnamed_addr constant [4 x i8] c"%s\0A\00", align 1

; Function Attrs: noinline nounwind uwtable
define dso_local i32 @main() #0 {
  %1 = alloca i32, align 4
  %2 = alloca i32, align 4
  %3 = alloca i32, align 4
  %4 = alloca [50 x [50 x i8]], align 16
  store i32 0, i32* %1, align 4
  %5 = bitcast [50 x [50 x i8]]* %4 to i8*
  call void @llvm.memset.p0i8.i64(i8* align 16 %5, i8 0, i64 2500, i1 false)
  %6 = call i32 (i8*, ...) @__isoc99_scanf(i8* getelementptr inbounds ([3 x i8], [3 x i8]* @.str, i64 0, i64 0), i32* %2)
  store i32 0, i32* %3, align 4
  br label %7

7:                                                ; preds = %18, %0
  %8 = load i32, i32* %3, align 4
  %9 = load i32, i32* %2, align 4
  %10 = sub nsw i32 %9, 1
  %11 = icmp sle i32 %8, %10
  br i1 %11, label %12, label %21

12:                                               ; preds = %7
  %13 = load i32, i32* %3, align 4
  %14 = sext i32 %13 to i64
  %15 = getelementptr inbounds [50 x [50 x i8]], [50 x [50 x i8]]* %4, i64 0, i64 %14
  %16 = getelementptr inbounds [50 x i8], [50 x i8]* %15, i64 0, i64 0
  %17 = call i32 (i8*, ...) @__isoc99_scanf(i8* getelementptr inbounds ([3 x i8], [3 x i8]* @.str.1, i64 0, i64 0), i8* %16)
  br label %18

18:                                               ; preds = %12
  %19 = load i32, i32* %3, align 4
  %20 = add nsw i32 %19, 1
  store i32 %20, i32* %3, align 4
  br label %7

21:                                               ; preds = %7
  store i32 0, i32* %3, align 4
  br label %22

22:                                               ; preds = %30, %21
  %23 = load i32, i32* %3, align 4
  %24 = load i32, i32* %2, align 4
  %25 = sub nsw i32 %24, 1
  %26 = icmp sle i32 %23, %25
  br i1 %26, label %27, label %33

27:                                               ; preds = %22
  %28 = getelementptr inbounds [50 x [50 x i8]], [50 x [50 x i8]]* %4, i64 0, i64 0
  %29 = load i32, i32* %3, align 4
  call void @de([50 x i8]* %28, i32 %29)
  br label %30

30:                                               ; preds = %27
  %31 = load i32, i32* %3, align 4
  %32 = add nsw i32 %31, 1
  store i32 %32, i32* %3, align 4
  br label %22

33:                                               ; preds = %22
  store i32 0, i32* %3, align 4
  br label %34

34:                                               ; preds = %45, %33
  %35 = load i32, i32* %3, align 4
  %36 = load i32, i32* %2, align 4
  %37 = sub nsw i32 %36, 1
  %38 = icmp sle i32 %35, %37
  br i1 %38, label %39, label %48

39:                                               ; preds = %34
  %40 = load i32, i32* %3, align 4
  %41 = sext i32 %40 to i64
  %42 = getelementptr inbounds [50 x [50 x i8]], [50 x [50 x i8]]* %4, i64 0, i64 %41
  %43 = getelementptr inbounds [50 x i8], [50 x i8]* %42, i64 0, i64 0
  %44 = call i32 (i8*, ...) @printf(i8* getelementptr inbounds ([4 x i8], [4 x i8]* @.str.2, i64 0, i64 0), i8* %43)
  br label %45

45:                                               ; preds = %39
  %46 = load i32, i32* %3, align 4
  %47 = add nsw i32 %46, 1
  store i32 %47, i32* %3, align 4
  br label %34

48:                                               ; preds = %34
  ret i32 0
}

; Function Attrs: argmemonly nounwind willreturn
declare void @llvm.memset.p0i8.i64(i8* nocapture writeonly, i8, i64, i1 immarg) #1

declare dso_local i32 @__isoc99_scanf(i8*, ...) #2

; Function Attrs: noinline nounwind uwtable
define dso_local void @de([50 x i8]* %0, i32 %1) #0 {
  %3 = alloca [50 x i8]*, align 8
  %4 = alloca i32, align 4
  %5 = alloca i32, align 4
  store [50 x i8]* %0, [50 x i8]** %3, align 8
  store i32 %1, i32* %4, align 4
  %6 = load [50 x i8]*, [50 x i8]** %3, align 8
  %7 = load i32, i32* %4, align 4
  %8 = sext i32 %7 to i64
  %9 = getelementptr inbounds [50 x i8], [50 x i8]* %6, i64 %8
  %10 = getelementptr inbounds [50 x i8], [50 x i8]* %9, i64 0, i64 0
  %11 = call i64 @strlen(i8* %10) #4
  %12 = trunc i64 %11 to i32
  store i32 %12, i32* %5, align 4
  %13 = load [50 x i8]*, [50 x i8]** %3, align 8
  %14 = load i32, i32* %4, align 4
  %15 = sext i32 %14 to i64
  %16 = getelementptr inbounds [50 x i8], [50 x i8]* %13, i64 %15
  %17 = load i32, i32* %5, align 4
  %18 = sub nsw i32 %17, 1
  %19 = sext i32 %18 to i64
  %20 = getelementptr inbounds [50 x i8], [50 x i8]* %16, i64 0, i64 %19
  %21 = load i8, i8* %20, align 1
  %22 = sext i8 %21 to i32
  %23 = icmp eq i32 %22, 114
  br i1 %23, label %36, label %24

24:                                               ; preds = %2
  %25 = load [50 x i8]*, [50 x i8]** %3, align 8
  %26 = load i32, i32* %4, align 4
  %27 = sext i32 %26 to i64
  %28 = getelementptr inbounds [50 x i8], [50 x i8]* %25, i64 %27
  %29 = load i32, i32* %5, align 4
  %30 = sub nsw i32 %29, 1
  %31 = sext i32 %30 to i64
  %32 = getelementptr inbounds [50 x i8], [50 x i8]* %28, i64 0, i64 %31
  %33 = load i8, i8* %32, align 1
  %34 = sext i8 %33 to i32
  %35 = icmp eq i32 %34, 121
  br i1 %35, label %36, label %53

36:                                               ; preds = %24, %2
  %37 = load [50 x i8]*, [50 x i8]** %3, align 8
  %38 = load i32, i32* %4, align 4
  %39 = sext i32 %38 to i64
  %40 = getelementptr inbounds [50 x i8], [50 x i8]* %37, i64 %39
  %41 = load i32, i32* %5, align 4
  %42 = sub nsw i32 %41, 1
  %43 = sext i32 %42 to i64
  %44 = getelementptr inbounds [50 x i8], [50 x i8]* %40, i64 0, i64 %43
  store i8 0, i8* %44, align 1
  %45 = load [50 x i8]*, [50 x i8]** %3, align 8
  %46 = load i32, i32* %4, align 4
  %47 = sext i32 %46 to i64
  %48 = getelementptr inbounds [50 x i8], [50 x i8]* %45, i64 %47
  %49 = load i32, i32* %5, align 4
  %50 = sub nsw i32 %49, 2
  %51 = sext i32 %50 to i64
  %52 = getelementptr inbounds [50 x i8], [50 x i8]* %48, i64 0, i64 %51
  store i8 0, i8* %52, align 1
  br label %91

53:                                               ; preds = %24
  %54 = load [50 x i8]*, [50 x i8]** %3, align 8
  %55 = load i32, i32* %4, align 4
  %56 = sext i32 %55 to i64
  %57 = getelementptr inbounds [50 x i8], [50 x i8]* %54, i64 %56
  %58 = load i32, i32* %5, align 4
  %59 = sub nsw i32 %58, 1
  %60 = sext i32 %59 to i64
  %61 = getelementptr inbounds [50 x i8], [50 x i8]* %57, i64 0, i64 %60
  %62 = load i8, i8* %61, align 1
  %63 = sext i8 %62 to i32
  %64 = icmp eq i32 %63, 103
  br i1 %64, label %65, label %90

65:                                               ; preds = %53
  %66 = load [50 x i8]*, [50 x i8]** %3, align 8
  %67 = load i32, i32* %4, align 4
  %68 = sext i32 %67 to i64
  %69 = getelementptr inbounds [50 x i8], [50 x i8]* %66, i64 %68
  %70 = load i32, i32* %5, align 4
  %71 = sub nsw i32 %70, 1
  %72 = sext i32 %71 to i64
  %73 = getelementptr inbounds [50 x i8], [50 x i8]* %69, i64 0, i64 %72
  store i8 0, i8* %73, align 1
  %74 = load [50 x i8]*, [50 x i8]** %3, align 8
  %75 = load i32, i32* %4, align 4
  %76 = sext i32 %75 to i64
  %77 = getelementptr inbounds [50 x i8], [50 x i8]* %74, i64 %76
  %78 = load i32, i32* %5, align 4
  %79 = sub nsw i32 %78, 2
  %80 = sext i32 %79 to i64
  %81 = getelementptr inbounds [50 x i8], [50 x i8]* %77, i64 0, i64 %80
  store i8 0, i8* %81, align 1
  %82 = load [50 x i8]*, [50 x i8]** %3, align 8
  %83 = load i32, i32* %4, align 4
  %84 = sext i32 %83 to i64
  %85 = getelementptr inbounds [50 x i8], [50 x i8]* %82, i64 %84
  %86 = load i32, i32* %5, align 4
  %87 = sub nsw i32 %86, 3
  %88 = sext i32 %87 to i64
  %89 = getelementptr inbounds [50 x i8], [50 x i8]* %85, i64 0, i64 %88
  store i8 0, i8* %89, align 1
  br label %90

90:                                               ; preds = %65, %53
  br label %91

91:                                               ; preds = %90, %36
  ret void
}

declare dso_local i32 @printf(i8*, ...) #2

; Function Attrs: nounwind readonly
declare dso_local i64 @strlen(i8*) #3


!llvm.module.flags = !{!0}
!llvm.ident = !{!1}

!0 = !{i32 1, !"wchar_size", i32 4}
!1 = !{!"clang version 10.0.0-4ubuntu1 "}
