; ModuleID = 'source-C-CXX/56/274.c'
source_filename = "source-C-CXX/56/274.c"
target datalayout = "e-m:e-p270:32:32-p271:32:32-p272:64:64-i64:64-f80:128-n8:16:32:64-S128"
target triple = "x86_64-pc-linux-gnu"

@.str = private unnamed_addr constant [3 x i8] c"%d\00", align 1
@.str.1 = private unnamed_addr constant [3 x i8] c"%s\00", align 1

; Function Attrs: nofree nounwind sspstrong uwtable
define dso_local i32 @main() local_unnamed_addr #0 {
  %1 = alloca i32, align 4
  %2 = alloca [50 x [50 x i8]], align 16
  %3 = bitcast i32* %1 to i8*
  call void @llvm.lifetime.start.p0i8(i64 4, i8* nonnull %3) #7
  %4 = getelementptr inbounds [50 x [50 x i8]], [50 x [50 x i8]]* %2, i64 0, i64 0, i64 0
  call void @llvm.lifetime.start.p0i8(i64 2500, i8* nonnull %4) #7
  call void @llvm.memset.p0i8.i64(i8* noundef nonnull align 16 dereferenceable(2500) %4, i8 0, i64 2500, i1 false)
  %5 = call i32 (i8*, ...) @__isoc99_scanf(i8* getelementptr inbounds ([3 x i8], [3 x i8]* @.str, i64 0, i64 0), i32* nonnull %1)
  %6 = load i32, i32* %1, align 4, !tbaa !5
  %7 = icmp sgt i32 %6, 0
  br i1 %7, label %12, label %51

8:                                                ; preds = %12
  %9 = icmp sgt i32 %17, 0
  br i1 %9, label %10, label %51

10:                                               ; preds = %8
  %11 = zext i32 %17 to i64
  br label %21

12:                                               ; preds = %0, %12
  %13 = phi i64 [ %16, %12 ], [ 0, %0 ]
  %14 = getelementptr inbounds [50 x [50 x i8]], [50 x [50 x i8]]* %2, i64 0, i64 %13, i64 0
  %15 = call i32 (i8*, ...) @__isoc99_scanf(i8* getelementptr inbounds ([3 x i8], [3 x i8]* @.str.1, i64 0, i64 0), i8* nonnull %14)
  %16 = add nuw nsw i64 %13, 1
  %17 = load i32, i32* %1, align 4, !tbaa !5
  %18 = sext i32 %17 to i64
  %19 = icmp slt i64 %16, %18
  br i1 %19, label %12, label %8, !llvm.loop !9

20:                                               ; preds = %40
  br i1 %9, label %43, label %51

21:                                               ; preds = %10, %40
  %22 = phi i64 [ 0, %10 ], [ %41, %40 ]
  %23 = getelementptr inbounds [50 x [50 x i8]], [50 x [50 x i8]]* %2, i64 0, i64 %22, i64 0
  %24 = call i64 @strlen(i8* noundef nonnull dereferenceable(1) %23) #8
  %25 = shl i64 %24, 32
  %26 = add i64 %25, -4294967296
  %27 = ashr exact i64 %26, 32
  %28 = getelementptr inbounds [50 x [50 x i8]], [50 x [50 x i8]]* %2, i64 0, i64 %22, i64 %27
  %29 = load i8, i8* %28, align 1, !tbaa !11
  switch i8 %29, label %40 [
    i8 114, label %34
    i8 121, label %34
    i8 103, label %30
  ]

30:                                               ; preds = %21
  store i8 0, i8* %28, align 1, !tbaa !11
  %31 = add i64 %25, -8589934592
  %32 = ashr exact i64 %31, 32
  %33 = getelementptr inbounds [50 x [50 x i8]], [50 x [50 x i8]]* %2, i64 0, i64 %22, i64 %32
  br label %34

34:                                               ; preds = %30, %21, %21
  %35 = phi i8* [ %33, %30 ], [ %28, %21 ], [ %28, %21 ]
  %36 = phi i64 [ -12884901888, %30 ], [ -8589934592, %21 ], [ -8589934592, %21 ]
  store i8 0, i8* %35, align 1, !tbaa !11
  %37 = add i64 %36, %25
  %38 = ashr exact i64 %37, 32
  %39 = getelementptr inbounds [50 x [50 x i8]], [50 x [50 x i8]]* %2, i64 0, i64 %22, i64 %38
  store i8 0, i8* %39, align 1, !tbaa !11
  br label %40

40:                                               ; preds = %21, %34
  %41 = add nuw nsw i64 %22, 1
  %42 = icmp eq i64 %41, %11
  br i1 %42, label %20, label %21, !llvm.loop !12

43:                                               ; preds = %20, %43
  %44 = phi i64 [ %47, %43 ], [ 0, %20 ]
  %45 = getelementptr inbounds [50 x [50 x i8]], [50 x [50 x i8]]* %2, i64 0, i64 %44, i64 0
  %46 = call i32 @puts(i8* nonnull %45)
  %47 = add nuw nsw i64 %44, 1
  %48 = load i32, i32* %1, align 4, !tbaa !5
  %49 = sext i32 %48 to i64
  %50 = icmp slt i64 %47, %49
  br i1 %50, label %43, label %51, !llvm.loop !13

51:                                               ; preds = %43, %8, %0, %20
  call void @llvm.lifetime.end.p0i8(i64 2500, i8* nonnull %4) #7
  call void @llvm.lifetime.end.p0i8(i64 4, i8* nonnull %3) #7
  ret i32 0
}

; Function Attrs: argmemonly mustprogress nofree nosync nounwind willreturn
declare void @llvm.lifetime.start.p0i8(i64 immarg, i8* nocapture) #1

; Function Attrs: argmemonly mustprogress nofree nounwind willreturn writeonly
declare void @llvm.memset.p0i8.i64(i8* nocapture writeonly, i8, i64, i1 immarg) #2

; Function Attrs: nofree nounwind
declare noundef i32 @__isoc99_scanf(i8* nocapture noundef readonly, ...) local_unnamed_addr #3

; Function Attrs: mustprogress nofree nounwind sspstrong uwtable willreturn
define dso_local void @de([50 x i8]* nocapture %0, i32 %1) local_unnamed_addr #4 {
  %3 = sext i32 %1 to i64
  %4 = getelementptr inbounds [50 x i8], [50 x i8]* %0, i64 %3, i64 0
  %5 = tail call i64 @strlen(i8* noundef nonnull dereferenceable(1) %4) #8
  %6 = shl i64 %5, 32
  %7 = add i64 %6, -4294967296
  %8 = ashr exact i64 %7, 32
  %9 = getelementptr inbounds [50 x i8], [50 x i8]* %0, i64 %3, i64 %8
  %10 = load i8, i8* %9, align 1, !tbaa !11
  switch i8 %10, label %21 [
    i8 114, label %15
    i8 121, label %15
    i8 103, label %11
  ]

11:                                               ; preds = %2
  store i8 0, i8* %9, align 1, !tbaa !11
  %12 = add i64 %6, -8589934592
  %13 = ashr exact i64 %12, 32
  %14 = getelementptr inbounds [50 x i8], [50 x i8]* %0, i64 %3, i64 %13
  br label %15

15:                                               ; preds = %2, %2, %11
  %16 = phi i8* [ %14, %11 ], [ %9, %2 ], [ %9, %2 ]
  %17 = phi i64 [ -12884901888, %11 ], [ -8589934592, %2 ], [ -8589934592, %2 ]
  store i8 0, i8* %16, align 1, !tbaa !11
  %18 = add i64 %6, %17
  %19 = ashr exact i64 %18, 32
  %20 = getelementptr inbounds [50 x i8], [50 x i8]* %0, i64 %3, i64 %19
  store i8 0, i8* %20, align 1, !tbaa !11
  br label %21

21:                                               ; preds = %15, %2
  ret void
}

; Function Attrs: argmemonly mustprogress nofree nosync nounwind willreturn
declare void @llvm.lifetime.end.p0i8(i64 immarg, i8* nocapture) #1

; Function Attrs: argmemonly mustprogress nofree nounwind readonly willreturn
declare i64 @strlen(i8* nocapture) local_unnamed_addr #5

; Function Attrs: nofree nounwind
declare noundef i32 @puts(i8* nocapture noundef readonly) local_unnamed_addr #6


!llvm.module.flags = !{!0, !1, !2, !3}
!llvm.ident = !{!4}

!0 = !{i32 1, !"wchar_size", i32 4}
!1 = !{i32 7, !"PIC Level", i32 2}
!2 = !{i32 7, !"PIE Level", i32 2}
!3 = !{i32 7, !"uwtable", i32 1}
!4 = !{!"clang version 13.0.0"}
!5 = !{!6, !6, i64 0}
!6 = !{!"int", !7, i64 0}
!7 = !{!"omnipotent char", !8, i64 0}
!8 = !{!"Simple C/C++ TBAA"}
!9 = distinct !{!9, !10}
!10 = !{!"llvm.loop.mustprogress"}
!11 = !{!7, !7, i64 0}
!12 = distinct !{!12, !10}
!13 = distinct !{!13, !10}
